	.file	"source.cpp"
	.text
.Ltext0:
	.section	.rodata.str1.1,"aMS",@progbits,1
.LC1:
	.string	"Elapsed time = %15.7f sec\n"
	.text
	.globl	main
	.type	main, @function
main:
.LFB57:
	.file 1 "source.cpp"
	.loc 1 6 0
	.cfi_startproc
	pushq	%rbx
	.cfi_def_cfa_offset 16
	.cfi_offset 3, -16
	subq	$524320, %rsp
	.cfi_def_cfa_offset 524336
	.loc 1 6 0
	movq	%fs:40, %rax
	movq	%rax, 524312(%rsp)
	xorl	%eax, %eax
.LVL0:
	.loc 1 10 0
	call	rand@PLT
.LVL1:
	pxor	%xmm0, %xmm0
	cvtsi2ss	%eax, %xmm0
	movss	%xmm0, 4(%rsp)
	.loc 1 11 0
	call	rand@PLT
.LVL2:
	pxor	%xmm0, %xmm0
	cvtsi2ss	%eax, %xmm0
	movss	%xmm0, 8(%rsp)
	.loc 1 12 0
	call	rand@PLT
.LVL3:
	pxor	%xmm0, %xmm0
	cvtsi2ss	%eax, %xmm0
	movss	%xmm0, 12(%rsp)
.LVL4:
.LBB7:
	.loc 1 17 0
	movl	$0, %ebx
.LVL5:
.L2:
	.loc 1 18 0 discriminator 2
	call	rand@PLT
.LVL6:
	pxor	%xmm0, %xmm0
	cvtsi2ss	%eax, %xmm0
	movslq	%ebx, %rax
	movss	%xmm0, 16(%rsp,%rax,4)
	.loc 1 17 0 discriminator 2
	addl	$1, %ebx
.LVL7:
	cmpl	$65536, %ebx
	jne	.L2
.LBE7:
	.loc 1 21 0
	call	clock@PLT
.LVL8:
	movq	%rax, %rbx
.LVL9:
	movl	$65536, %ecx
.LVL10:
.L4:
.LBB8:
.LBB9:
	.loc 1 25 0
	movl	$0, %edx
.LVL11:
.L3:
	.loc 1 26 0 discriminator 2
	movslq	%edx, %rax
	movss	16(%rsp,%rax,4), %xmm0
	movss	4(%rsp), %xmm5
	movss	16(%rsp,%rax,4), %xmm2
	movss	8(%rsp), %xmm4
	movss	16(%rsp,%rax,4), %xmm1
	movss	12(%rsp), %xmm3
	mulss	%xmm5, %xmm0
	mulss	%xmm4, %xmm2
	addss	%xmm2, %xmm0
	mulss	%xmm3, %xmm1
	addss	%xmm1, %xmm0
	movss	%xmm0, 262160(%rsp,%rax,4)
	.loc 1 25 0 discriminator 2
	addl	$1, %edx
.LVL12:
	cmpl	$65536, %edx
	jne	.L3
.LVL13:
.LBE9:
	.loc 1 24 0 discriminator 2
	subl	$1, %ecx
.LVL14:
	jne	.L4
.LBE8:
	.loc 1 30 0
	call	clock@PLT
.LVL15:
	.loc 1 32 0
	subq	%rbx, %rax
.LVL16:
	pxor	%xmm0, %xmm0
	cvtsi2ssq	%rax, %xmm0
	divss	.LC0(%rip), %xmm0
	.loc 1 33 0
	cvtss2sd	%xmm0, %xmm0
.LBB10:
.LBB11:
	.file 2 "/usr/include/x86_64-linux-gnu/bits/stdio2.h"
	.loc 2 104 0
	leaq	.LC1(%rip), %rsi
	movl	$1, %edi
	movl	$1, %eax
	call	__printf_chk@PLT
.LVL17:
.LBE11:
.LBE10:
	.loc 1 36 0
	movl	$0, %eax
	movq	524312(%rsp), %rsi
	xorq	%fs:40, %rsi
	jne	.L10
	addq	$524320, %rsp
	.cfi_remember_state
	.cfi_def_cfa_offset 16
	popq	%rbx
	.cfi_def_cfa_offset 8
.LVL18:
	ret
.LVL19:
.L10:
	.cfi_restore_state
	call	__stack_chk_fail@PLT
.LVL20:
	.cfi_endproc
.LFE57:
	.size	main, .-main
	.section	.rodata.cst4,"aM",@progbits,4
	.align 4
.LC0:
	.long	1232348160
	.text
.Letext0:
	.file 3 "/usr/include/c++/7/cstdio"
	.file 4 "/usr/include/c++/7/cstdlib"
	.file 5 "/usr/include/c++/7/ctime"
	.file 6 "/usr/include/x86_64-linux-gnu/c++/7/bits/c++config.h"
	.file 7 "/usr/lib/gcc/x86_64-linux-gnu/7/include/stddef.h"
	.file 8 "/usr/include/x86_64-linux-gnu/bits/types.h"
	.file 9 "/usr/include/x86_64-linux-gnu/bits/libio.h"
	.file 10 "/usr/include/x86_64-linux-gnu/bits/types/FILE.h"
	.file 11 "/usr/include/x86_64-linux-gnu/bits/types/__mbstate_t.h"
	.file 12 "/usr/include/x86_64-linux-gnu/bits/_G_config.h"
	.file 13 "/usr/include/stdio.h"
	.file 14 "/usr/include/x86_64-linux-gnu/bits/sys_errlist.h"
	.file 15 "/usr/include/x86_64-linux-gnu/bits/stdio.h"
	.file 16 "/usr/include/stdlib.h"
	.file 17 "/usr/include/x86_64-linux-gnu/bits/types/clock_t.h"
	.file 18 "/usr/include/x86_64-linux-gnu/bits/types/time_t.h"
	.file 19 "/usr/include/x86_64-linux-gnu/bits/stdlib-float.h"
	.file 20 "/usr/include/x86_64-linux-gnu/bits/stdlib-bsearch.h"
	.file 21 "/usr/include/x86_64-linux-gnu/bits/stdlib.h"
	.file 22 "/usr/include/x86_64-linux-gnu/bits/types/struct_tm.h"
	.file 23 "/usr/include/time.h"
	.file 24 "<built-in>"
	.section	.note.GNU-stack,"",@progbits
